; ModuleID = 'source-C-CXX/15/1027.c'
source_filename = "source-C-CXX/15/1027.c"
target datalayout = "e-m:e-p270:32:32-p271:32:32-p272:64:64-i64:64-f80:128-n8:16:32:64-S128"
target triple = "x86_64-pc-linux-gnu"

@.str = private unnamed_addr constant [3 x i8] c"%d\00", align 1

; Function Attrs: nofree nounwind sspstrong uwtable
define dso_local void @main() local_unnamed_addr #0 {
  %1 = alloca i32, align 4
  %2 = alloca [6 x i32], align 16
  %3 = bitcast i32* %1 to i8*
  call void @llvm.lifetime.start.p0i8(i64 4, i8* nonnull %3) #4
  store i32 0, i32* %1, align 4, !tbaa !5
  %4 = bitcast [6 x i32]* %2 to i8*
  call void @llvm.lifetime.start.p0i8(i64 24, i8* nonnull %4) #4
  call void @llvm.memset.p0i8.i64(i8* noundef nonnull align 16 dereferenceable(24) %4, i8 0, i64 24, i1 false)
  %5 = call i32 (i8*, ...) @__isoc99_scanf(i8* getelementptr inbounds ([3 x i8], [3 x i8]* @.str, i64 0, i64 0), i32* nonnull %1)
  %6 = load i32, i32* %1, align 4, !tbaa !5
  %7 = icmp sgt i32 %6, 9
  br i1 %7, label %17, label %10

8:                                                ; preds = %17
  store i32 %20, i32* %1, align 4, !tbaa !5
  %9 = icmp ult i32 %18, 2147483647
  br i1 %9, label %10, label %53

10:                                               ; preds = %0, %8
  %11 = phi i32 [ %21, %8 ], [ 1, %0 ]
  %12 = zext i32 %11 to i64
  %13 = and i64 %12, 1
  %14 = icmp eq i32 %11, 1
  br i1 %14, label %23, label %15

15:                                               ; preds = %10
  %16 = and i64 %12, 4294967294
  br label %32

17:                                               ; preds = %0, %17
  %18 = phi i32 [ %21, %17 ], [ 1, %0 ]
  %19 = phi i32 [ %20, %17 ], [ %6, %0 ]
  %20 = udiv i32 %19, 10
  %21 = add i32 %18, 1
  %22 = icmp ugt i32 %19, 99
  br i1 %22, label %17, label %8, !llvm.loop !9

23:                                               ; preds = %32, %10
  %24 = phi i64 [ 0, %10 ], [ %43, %32 ]
  %25 = phi i32 [ %6, %10 ], [ %42, %32 ]
  %26 = icmp eq i64 %13, 0
  br i1 %26, label %30, label %27

27:                                               ; preds = %23
  %28 = srem i32 %25, 10
  %29 = getelementptr inbounds [6 x i32], [6 x i32]* %2, i64 0, i64 %24
  store i32 %28, i32* %29, align 4, !tbaa !5
  br label %30

30:                                               ; preds = %23, %27
  %31 = zext i32 %11 to i64
  br label %46

32:                                               ; preds = %32, %15
  %33 = phi i64 [ 0, %15 ], [ %43, %32 ]
  %34 = phi i32 [ %6, %15 ], [ %42, %32 ]
  %35 = phi i64 [ %16, %15 ], [ %44, %32 ]
  %36 = srem i32 %34, 10
  %37 = getelementptr inbounds [6 x i32], [6 x i32]* %2, i64 0, i64 %33
  store i32 %36, i32* %37, align 8, !tbaa !5
  %38 = sdiv i32 %34, 10
  %39 = or i64 %33, 1
  %40 = srem i32 %38, 10
  %41 = getelementptr inbounds [6 x i32], [6 x i32]* %2, i64 0, i64 %39
  store i32 %40, i32* %41, align 4, !tbaa !5
  %42 = sdiv i32 %34, 100
  %43 = add nuw nsw i64 %33, 2
  %44 = add i64 %35, -2
  %45 = icmp eq i64 %44, 0
  br i1 %45, label %23, label %32, !llvm.loop !11

46:                                               ; preds = %30, %46
  %47 = phi i64 [ 0, %30 ], [ %51, %46 ]
  %48 = getelementptr inbounds [6 x i32], [6 x i32]* %2, i64 0, i64 %47
  %49 = load i32, i32* %48, align 4, !tbaa !5
  %50 = call i32 (i8*, ...) @printf(i8* nonnull dereferenceable(1) getelementptr inbounds ([3 x i8], [3 x i8]* @.str, i64 0, i64 0), i32 %49)
  %51 = add nuw nsw i64 %47, 1
  %52 = icmp eq i64 %51, %31
  br i1 %52, label %53, label %46, !llvm.loop !12

53:                                               ; preds = %46, %8
  call void @llvm.lifetime.end.p0i8(i64 24, i8* nonnull %4) #4
  call void @llvm.lifetime.end.p0i8(i64 4, i8* nonnull %3) #4
  ret void
}

; Function Attrs: argmemonly mustprogress nofree nosync nounwind willreturn
declare void @llvm.lifetime.start.p0i8(i64 immarg, i8* nocapture) #1

; Function Attrs: argmemonly mustprogress nofree nounwind willreturn writeonly
declare void @llvm.memset.p0i8.i64(i8* nocapture writeonly, i8, i64, i1 immarg) #2

; Function Attrs: nofree nounwind
declare noundef i32 @__isoc99_scanf(i8* nocapture noundef readonly, ...) local_unnamed_addr #3

; Function Attrs: nofree nounwind
declare noundef i32 @printf(i8* nocapture noundef readonly, ...) local_unnamed_addr #3

; Function Attrs: argmemonly mustprogress nofree nosync nounwind willreturn
declare void @llvm.lifetime.end.p0i8(i64 immarg, i8* nocapture) #1


!llvm.module.flags = !{!0, !1, !2, !3}
!llvm.ident = !{!4}

!0 = !{i32 1, !"wchar_size", i32 4}
!1 = !{i32 7, !"PIC Level", i32 2}
!2 = !{i32 7, !"PIE Level", i32 2}
!3 = !{i32 7, !"uwtable", i32 1}
!4 = !{!"clang version 13.0.0"}
!5 = !{!6, !6, i64 0}
!6 = !{!"int", !7, i64 0}
!7 = !{!"omnipotent char", !8, i64 0}
!8 = !{!"Simple C/C++ TBAA"}
!9 = distinct !{!9, !10}
!10 = !{!"llvm.loop.mustprogress"}
!11 = distinct !{!11, !10}
!12 = distinct !{!12, !10}
